target datalayout = "e-m:e-p270:32:32-p271:32:32-p272:64:64-i64:64-i128:128-f80:128-n8:16:32:64-S128"
target triple = "x86_64-pc-linux-gnu"

%struct.redisCommand = type { ptr, ptr, ptr, ptr, i32, ptr, ptr, i32, ptr, i32, ptr, i32, ptr, i32, i64, i64, ptr, i32, ptr, i32, ptr, ptr, i64, i64, i64, i64, i32, ptr, ptr, %struct.keySpec, ptr, ptr, ptr }
%struct.keySpec = type { ptr, i64, i32, %union.anon, i32, %union.anon.2 }
%union.anon = type { %struct.anon.1 }
%struct.anon.1 = type { ptr, i32 }
%union.anon.2 = type { %struct.anon.3 }
%struct.anon.3 = type { i32, i32, i32 }

; Function Attrs: nounwind uwtable
define dso_local void @ACLSetSelectorCommandBitsForCategory(ptr noundef %0, ptr noundef %1, i64 noundef %2, i32 noundef %3) #0 {
  %5 = alloca ptr, align 8
  %6 = alloca ptr, align 8
  %7 = alloca i64, align 8
  %8 = alloca i32, align 4
  %9 = alloca ptr, align 8
  %10 = alloca ptr, align 8
  %11 = alloca ptr, align 8
  store ptr %0, ptr %5, align 8, !tbaa !121
  store ptr %1, ptr %6, align 8, !tbaa !32
  store i64 %2, ptr %7, align 8, !tbaa !10
  store i32 %3, ptr %8, align 4, !tbaa !17
  call void @llvm.lifetime.start.p0(i64 8, ptr %9) #14
  %12 = load ptr, ptr %5, align 8, !tbaa !121
  %13 = call ptr @dictGetIterator(ptr noundef %12)
  store ptr %13, ptr %9, align 8, !tbaa !116
  call void @llvm.lifetime.start.p0(i64 8, ptr %10) #14
  br label %14

14:                                               ; preds = %43, %4
  %15 = load ptr, ptr %9, align 8, !tbaa !116
  %16 = call ptr @dictNext(ptr noundef %15)
  store ptr %16, ptr %10, align 8, !tbaa !118
  %17 = icmp ne ptr %16, null
  br i1 %17, label %18, label %44

18:                                               ; preds = %14
  call void @llvm.lifetime.start.p0(i64 8, ptr %11) #14
  %19 = load ptr, ptr %10, align 8, !tbaa !118
  %20 = call ptr @dictGetVal(ptr noundef %19)
  store ptr %20, ptr %11, align 8, !tbaa !108
  %21 = load ptr, ptr %11, align 8, !tbaa !108
  %22 = getelementptr inbounds nuw %struct.redisCommand, ptr %21, i32 0, i32 15
  %23 = load i64, ptr %22, align 8, !tbaa !122
  %24 = load i64, ptr %7, align 8, !tbaa !10
  %25 = and i64 %23, %24
  %26 = icmp ne i64 %25, 0
  br i1 %26, label %27, label %31

27:                                               ; preds = %18
  %28 = load ptr, ptr %6, align 8, !tbaa !32
  %29 = load ptr, ptr %11, align 8, !tbaa !108
  %30 = load i32, ptr %8, align 4, !tbaa !17
  call void @ACLChangeSelectorPerm(ptr noundef %28, ptr noundef %29, i32 noundef %30)
  br label %31

31:                                               ; preds = %27, %18
  %32 = load ptr, ptr %11, align 8, !tbaa !108
  %33 = getelementptr inbounds nuw %struct.redisCommand, ptr %32, i32 0, i32 30
  %34 = load ptr, ptr %33, align 8, !tbaa !115
  %35 = icmp ne ptr %34, null
  br i1 %35, label %36, label %43

36:                                               ; preds = %31
  %37 = load ptr, ptr %11, align 8, !tbaa !108
  %38 = getelementptr inbounds nuw %struct.redisCommand, ptr %37, i32 0, i32 30
  %39 = load ptr, ptr %38, align 8, !tbaa !115
  %40 = load ptr, ptr %6, align 8, !tbaa !32
  %41 = load i64, ptr %7, align 8, !tbaa !10
  %42 = load i32, ptr %8, align 4, !tbaa !17
  call void @ACLSetSelectorCommandBitsForCategory(ptr noundef %39, ptr noundef %40, i64 noundef %41, i32 noundef %42)
  br label %43

43:                                               ; preds = %36, %31
  call void @llvm.lifetime.end.p0(i64 8, ptr %11) #14
  br label %14, !llvm.loop !123

44:                                               ; preds = %14
  %45 = load ptr, ptr %9, align 8, !tbaa !116
  call void @dictReleaseIterator(ptr noundef %45)
  call void @llvm.lifetime.end.p0(i64 8, ptr %10) #14
  call void @llvm.lifetime.end.p0(i64 8, ptr %9) #14
  ret void
}