; Function Attrs: nounwind uwtable
define dso_local void @ACLSetSelectorCommandBitsForCategory(ptr noundef %0, ptr noundef captures(none) %1, i64 noundef %2, i32 noundef %3) local_unnamed_addr #0 {
  %5 = tail call ptr @dictGetIterator(ptr noundef %0) #25
  %6 = tail call ptr @dictNext(ptr noundef %5) #25
  %.not16 = icmp eq ptr %6, null
  br i1 %.not16, label %._crit_edge, label %.lr.ph

.lr.ph:                                           ; preds = %4, %17
  %7 = phi ptr [ %18, %17 ], [ %6, %4 ]
  %8 = tail call ptr @dictGetVal(ptr noundef nonnull %7) #25
  %9 = getelementptr inbounds nuw i8, ptr %8, i64 120
  %10 = load i64, ptr %9, align 8, !tbaa !113
  %11 = and i64 %10, %2
  %.not14 = icmp eq i64 %11, 0
  br i1 %.not14, label %13, label %12

12:                                               ; preds = %.lr.ph
  tail call void @ACLChangeSelectorPerm(ptr noundef %1, ptr noundef nonnull %8, i32 noundef %3)
  br label %13

13:                                               ; preds = %12, %.lr.ph
  %14 = getelementptr inbounds nuw i8, ptr %8, i64 288
  %15 = load ptr, ptr %14, align 8, !tbaa !111
  %.not15 = icmp eq ptr %15, null
  br i1 %.not15, label %17, label %16

16:                                               ; preds = %13
  tail call void @ACLSetSelectorCommandBitsForCategory(ptr noundef nonnull %15, ptr noundef %1, i64 noundef %2, i32 noundef %3)
  br label %17

17:                                               ; preds = %16, %13
  %18 = tail call ptr @dictNext(ptr noundef %5) #25
  %.not = icmp eq ptr %18, null
  br i1 %.not, label %._crit_edge, label %.lr.ph, !llvm.loop !114

._crit_edge:                                      ; preds = %17, %4
  tail call void @dictReleaseIterator(ptr noundef %5) #25
  ret void
}